target datalayout = "e-m:e-p270:32:32-p271:32:32-p272:64:64-i64:64-i128:128-f80:128-n8:16:32:64-S128"
target triple = "x86_64-pc-linux-gnu"

; Function Attrs: nounwind uwtable
define internal void @add_hfyu_left_pred_bgr32_c(ptr noundef %0, ptr noundef %1, i64 noundef %2, ptr noundef %3) #1 {
  %5 = alloca ptr, align 8
  %6 = alloca ptr, align 8
  %7 = alloca i64, align 8
  %8 = alloca ptr, align 8
  %9 = alloca i32, align 4
  %10 = alloca i8, align 1
  %11 = alloca i8, align 1
  %12 = alloca i8, align 1
  %13 = alloca i8, align 1
  store ptr %0, ptr %5, align 8, !tbaa !27
  store ptr %1, ptr %6, align 8, !tbaa !27
  store i64 %2, ptr %7, align 8, !tbaa !17
  store ptr %3, ptr %8, align 8, !tbaa !27
  call void @llvm.lifetime.start.p0(i64 4, ptr %9) #4
  call void @llvm.lifetime.start.p0(i64 1, ptr %10) #4
  %14 = load ptr, ptr %8, align 8, !tbaa !27
  %15 = getelementptr inbounds i8, ptr %14, i64 2
  %16 = load i8, ptr %15, align 1, !tbaa !29
  store i8 %16, ptr %10, align 1, !tbaa !29
  call void @llvm.lifetime.start.p0(i64 1, ptr %11) #4
  %17 = load ptr, ptr %8, align 8, !tbaa !27
  %18 = getelementptr inbounds i8, ptr %17, i64 1
  %19 = load i8, ptr %18, align 1, !tbaa !29
  store i8 %19, ptr %11, align 1, !tbaa !29
  call void @llvm.lifetime.start.p0(i64 1, ptr %12) #4
  %20 = load ptr, ptr %8, align 8, !tbaa !27
  %21 = getelementptr inbounds i8, ptr %20, i64 0
  %22 = load i8, ptr %21, align 1, !tbaa !29
  store i8 %22, ptr %12, align 1, !tbaa !29
  call void @llvm.lifetime.start.p0(i64 1, ptr %13) #4
  %23 = load ptr, ptr %8, align 8, !tbaa !27
  %24 = getelementptr inbounds i8, ptr %23, i64 3
  %25 = load i8, ptr %24, align 1, !tbaa !29
  store i8 %25, ptr %13, align 1, !tbaa !29
  store i32 0, ptr %9, align 4, !tbaa !9
  br label %26

26:                                               ; preds = %108, %4
  %27 = load i32, ptr %9, align 4, !tbaa !9
  %28 = sext i32 %27 to i64
  %29 = load i64, ptr %7, align 8, !tbaa !17
  %30 = icmp slt i64 %28, %29
  br i1 %30, label %31, label %111

31:                                               ; preds = %26
  %32 = load ptr, ptr %6, align 8, !tbaa !27
  %33 = load i32, ptr %9, align 4, !tbaa !9
  %34 = mul nsw i32 4, %33
  %35 = add nsw i32 %34, 0
  %36 = sext i32 %35 to i64
  %37 = getelementptr inbounds i8, ptr %32, i64 %36
  %38 = load i8, ptr %37, align 1, !tbaa !29
  %39 = zext i8 %38 to i32
  %40 = load i8, ptr %12, align 1, !tbaa !29
  %41 = zext i8 %40 to i32
  %42 = add nsw i32 %41, %39
  %43 = trunc i32 %42 to i8
  store i8 %43, ptr %12, align 1, !tbaa !29
  %44 = load ptr, ptr %6, align 8, !tbaa !27
  %45 = load i32, ptr %9, align 4, !tbaa !9
  %46 = mul nsw i32 4, %45
  %47 = add nsw i32 %46, 1
  %48 = sext i32 %47 to i64
  %49 = getelementptr inbounds i8, ptr %44, i64 %48
  %50 = load i8, ptr %49, align 1, !tbaa !29
  %51 = zext i8 %50 to i32
  %52 = load i8, ptr %11, align 1, !tbaa !29
  %53 = zext i8 %52 to i32
  %54 = add nsw i32 %53, %51
  %55 = trunc i32 %54 to i8
  store i8 %55, ptr %11, align 1, !tbaa !29
  %56 = load ptr, ptr %6, align 8, !tbaa !27
  %57 = load i32, ptr %9, align 4, !tbaa !9
  %58 = mul nsw i32 4, %57
  %59 = add nsw i32 %58, 2
  %60 = sext i32 %59 to i64
  %61 = getelementptr inbounds i8, ptr %56, i64 %60
  %62 = load i8, ptr %61, align 1, !tbaa !29
  %63 = zext i8 %62 to i32
  %64 = load i8, ptr %10, align 1, !tbaa !29
  %65 = zext i8 %64 to i32
  %66 = add nsw i32 %65, %63
  %67 = trunc i32 %66 to i8
  store i8 %67, ptr %10, align 1, !tbaa !29
  %68 = load ptr, ptr %6, align 8, !tbaa !27
  %69 = load i32, ptr %9, align 4, !tbaa !9
  %70 = mul nsw i32 4, %69
  %71 = add nsw i32 %70, 3
  %72 = sext i32 %71 to i64
  %73 = getelementptr inbounds i8, ptr %68, i64 %72
  %74 = load i8, ptr %73, align 1, !tbaa !29
  %75 = zext i8 %74 to i32
  %76 = load i8, ptr %13, align 1, !tbaa !29
  %77 = zext i8 %76 to i32
  %78 = add nsw i32 %77, %75
  %79 = trunc i32 %78 to i8
  store i8 %79, ptr %13, align 1, !tbaa !29
  %80 = load i8, ptr %12, align 1, !tbaa !29
  %81 = load ptr, ptr %5, align 8, !tbaa !27
  %82 = load i32, ptr %9, align 4, !tbaa !9
  %83 = mul nsw i32 4, %82
  %84 = add nsw i32 %83, 0
  %85 = sext i32 %84 to i64
  %86 = getelementptr inbounds i8, ptr %81, i64 %85
  store i8 %80, ptr %86, align 1, !tbaa !29
  %87 = load i8, ptr %11, align 1, !tbaa !29
  %88 = load ptr, ptr %5, align 8, !tbaa !27
  %89 = load i32, ptr %9, align 4, !tbaa !9
  %90 = mul nsw i32 4, %89
  %91 = add nsw i32 %90, 1
  %92 = sext i32 %91 to i64
  %93 = getelementptr inbounds i8, ptr %88, i64 %92
  store i8 %87, ptr %93, align 1, !tbaa !29
  %94 = load i8, ptr %10, align 1, !tbaa !29
  %95 = load ptr, ptr %5, align 8, !tbaa !27
  %96 = load i32, ptr %9, align 4, !tbaa !9
  %97 = mul nsw i32 4, %96
  %98 = add nsw i32 %97, 2
  %99 = sext i32 %98 to i64
  %100 = getelementptr inbounds i8, ptr %95, i64 %99
  store i8 %94, ptr %100, align 1, !tbaa !29
  %101 = load i8, ptr %13, align 1, !tbaa !29
  %102 = load ptr, ptr %5, align 8, !tbaa !27
  %103 = load i32, ptr %9, align 4, !tbaa !9
  %104 = mul nsw i32 4, %103
  %105 = add nsw i32 %104, 3
  %106 = sext i32 %105 to i64
  %107 = getelementptr inbounds i8, ptr %102, i64 %106
  store i8 %101, ptr %107, align 1, !tbaa !29
  br label %108

108:                                              ; preds = %31
  %109 = load i32, ptr %9, align 4, !tbaa !9
  %110 = add nsw i32 %109, 1
  store i32 %110, ptr %9, align 4, !tbaa !9
  br label %26, !llvm.loop !30

111:                                              ; preds = %26
  %112 = load i8, ptr %12, align 1, !tbaa !29
  %113 = load ptr, ptr %8, align 8, !tbaa !27
  %114 = getelementptr inbounds i8, ptr %113, i64 0
  store i8 %112, ptr %114, align 1, !tbaa !29
  %115 = load i8, ptr %11, align 1, !tbaa !29
  %116 = load ptr, ptr %8, align 8, !tbaa !27
  %117 = getelementptr inbounds i8, ptr %116, i64 1
  store i8 %115, ptr %117, align 1, !tbaa !29
  %118 = load i8, ptr %10, align 1, !tbaa !29
  %119 = load ptr, ptr %8, align 8, !tbaa !27
  %120 = getelementptr inbounds i8, ptr %119, i64 2
  store i8 %118, ptr %120, align 1, !tbaa !29
  %121 = load i8, ptr %13, align 1, !tbaa !29
  %122 = load ptr, ptr %8, align 8, !tbaa !27
  %123 = getelementptr inbounds i8, ptr %122, i64 3
  store i8 %121, ptr %123, align 1, !tbaa !29
  call void @llvm.lifetime.end.p0(i64 1, ptr %13) #4
  call void @llvm.lifetime.end.p0(i64 1, ptr %12) #4
  call void @llvm.lifetime.end.p0(i64 1, ptr %11) #4
  call void @llvm.lifetime.end.p0(i64 1, ptr %10) #4
  call void @llvm.lifetime.end.p0(i64 4, ptr %9) #4
  ret void
}