; Function Attrs: nofree norecurse nosync nounwind memory(argmem: readwrite) uwtable
define internal void @add_hfyu_left_pred_bgr32_c(ptr noundef writeonly captures(none) %0, ptr noundef readonly captures(none) %1, i64 noundef %2, ptr noundef captures(none) %3) #1 {
  %5 = getelementptr inbounds nuw i8, ptr %3, i64 2
  %6 = load i8, ptr %5, align 1, !tbaa !21
  %7 = getelementptr inbounds nuw i8, ptr %3, i64 1
  %8 = load i8, ptr %7, align 1, !tbaa !21
  %9 = load i8, ptr %3, align 1, !tbaa !21
  %10 = getelementptr inbounds nuw i8, ptr %3, i64 3
  %11 = load i8, ptr %10, align 1, !tbaa !21
  %12 = icmp sgt i64 %2, 0
  br i1 %12, label %.lr.ph, label %._crit_edge

.lr.ph:                                           ; preds = %4, %.lr.ph
  %indvars.iv = phi i64 [ %indvars.iv.next, %.lr.ph ], [ 0, %4 ]
  %.046 = phi i8 [ %28, %.lr.ph ], [ %11, %4 ]
  %.03845 = phi i8 [ %16, %.lr.ph ], [ %9, %4 ]
  %.03944 = phi i8 [ %20, %.lr.ph ], [ %8, %4 ]
  %.04043 = phi i8 [ %24, %.lr.ph ], [ %6, %4 ]
  %13 = shl nsw i64 %indvars.iv, 2
  %14 = getelementptr inbounds nuw i8, ptr %1, i64 %13
  %15 = load i8, ptr %14, align 1, !tbaa !21
  %16 = add i8 %15, %.03845
  %17 = or disjoint i64 %13, 1
  %18 = getelementptr inbounds nuw i8, ptr %1, i64 %17
  %19 = load i8, ptr %18, align 1, !tbaa !21
  %20 = add i8 %19, %.03944
  %21 = or disjoint i64 %13, 2
  %22 = getelementptr inbounds nuw i8, ptr %1, i64 %21
  %23 = load i8, ptr %22, align 1, !tbaa !21
  %24 = add i8 %23, %.04043
  %25 = or disjoint i64 %13, 3
  %26 = getelementptr inbounds nuw i8, ptr %1, i64 %25
  %27 = load i8, ptr %26, align 1, !tbaa !21
  %28 = add i8 %27, %.046
  %29 = getelementptr inbounds nuw i8, ptr %0, i64 %13
  store i8 %16, ptr %29, align 1, !tbaa !21
  %30 = getelementptr inbounds nuw i8, ptr %0, i64 %17
  store i8 %20, ptr %30, align 1, !tbaa !21
  %31 = getelementptr inbounds nuw i8, ptr %0, i64 %21
  store i8 %24, ptr %31, align 1, !tbaa !21
  %32 = getelementptr inbounds nuw i8, ptr %0, i64 %25
  store i8 %28, ptr %32, align 1, !tbaa !21
  %indvars.iv.next = add nuw nsw i64 %indvars.iv, 1
  %exitcond.not = icmp eq i64 %indvars.iv.next, %2
  br i1 %exitcond.not, label %._crit_edge, label %.lr.ph, !llvm.loop !22

._crit_edge:                                      ; preds = %.lr.ph, %4
  %.040.lcssa = phi i8 [ %6, %4 ], [ %24, %.lr.ph ]
  %.039.lcssa = phi i8 [ %8, %4 ], [ %20, %.lr.ph ]
  %.038.lcssa = phi i8 [ %9, %4 ], [ %16, %.lr.ph ]
  %.0.lcssa = phi i8 [ %11, %4 ], [ %28, %.lr.ph ]
  store i8 %.038.lcssa, ptr %3, align 1, !tbaa !21
  store i8 %.039.lcssa, ptr %7, align 1, !tbaa !21
  store i8 %.040.lcssa, ptr %5, align 1, !tbaa !21
  store i8 %.0.lcssa, ptr %10, align 1, !tbaa !21
  ret void
}